; ModuleID = '11/510.c'
source_filename = "11/510.c"
target datalayout = "e-m:e-p270:32:32-p271:32:32-p272:64:64-i64:64-f80:128-n8:16:32:64-S128"
target triple = "x86_64-pc-linux-gnu"

@.str = private unnamed_addr constant [7 x i8] c"%d%d%d\00", align 1
@.str.1 = private unnamed_addr constant [4 x i8] c"%d\0A\00", align 1

; Function Attrs: noinline nounwind uwtable
define dso_local i32 @main() #0 {
  %1 = alloca i32, align 4
  %2 = alloca i32, align 4
  %3 = alloca i32, align 4
  %4 = alloca i32, align 4
  %5 = alloca i32, align 4
  store i32 0, i32* %1, align 4
  %6 = call i32 (i8*, ...) @__isoc99_scanf(i8* getelementptr inbounds ([7 x i8], [7 x i8]* @.str, i64 0, i64 0), i32* %2, i32* %3, i32* %4)
  %7 = load i32, i32* %3, align 4
  %8 = icmp eq i32 %7, 1
  br i1 %8, label %9, label %11

9:                                                ; preds = %0
  %10 = load i32, i32* %4, align 4
  store i32 %10, i32* %5, align 4
  br label %11

11:                                               ; preds = %9, %0
  %12 = load i32, i32* %3, align 4
  %13 = icmp eq i32 %12, 2
  br i1 %13, label %14, label %17

14:                                               ; preds = %11
  %15 = load i32, i32* %4, align 4
  %16 = add nsw i32 31, %15
  store i32 %16, i32* %5, align 4
  br label %17

17:                                               ; preds = %14, %11
  %18 = load i32, i32* %3, align 4
  %19 = icmp eq i32 %18, 3
  br i1 %19, label %20, label %23

20:                                               ; preds = %17
  %21 = load i32, i32* %4, align 4
  %22 = add nsw i32 59, %21
  store i32 %22, i32* %5, align 4
  br label %23

23:                                               ; preds = %20, %17
  %24 = load i32, i32* %3, align 4
  %25 = icmp eq i32 %24, 4
  br i1 %25, label %26, label %29

26:                                               ; preds = %23
  %27 = load i32, i32* %4, align 4
  %28 = add nsw i32 90, %27
  store i32 %28, i32* %5, align 4
  br label %29

29:                                               ; preds = %26, %23
  %30 = load i32, i32* %3, align 4
  %31 = icmp eq i32 %30, 5
  br i1 %31, label %32, label %35

32:                                               ; preds = %29
  %33 = load i32, i32* %4, align 4
  %34 = add nsw i32 120, %33
  store i32 %34, i32* %5, align 4
  br label %35

35:                                               ; preds = %32, %29
  %36 = load i32, i32* %3, align 4
  %37 = icmp eq i32 %36, 6
  br i1 %37, label %38, label %41

38:                                               ; preds = %35
  %39 = load i32, i32* %4, align 4
  %40 = add nsw i32 151, %39
  store i32 %40, i32* %5, align 4
  br label %41

41:                                               ; preds = %38, %35
  %42 = load i32, i32* %3, align 4
  %43 = icmp eq i32 %42, 7
  br i1 %43, label %44, label %47

44:                                               ; preds = %41
  %45 = load i32, i32* %4, align 4
  %46 = add nsw i32 181, %45
  store i32 %46, i32* %5, align 4
  br label %47

47:                                               ; preds = %44, %41
  %48 = load i32, i32* %3, align 4
  %49 = icmp eq i32 %48, 8
  br i1 %49, label %50, label %53

50:                                               ; preds = %47
  %51 = load i32, i32* %4, align 4
  %52 = add nsw i32 212, %51
  store i32 %52, i32* %5, align 4
  br label %53

53:                                               ; preds = %50, %47
  %54 = load i32, i32* %3, align 4
  %55 = icmp eq i32 %54, 9
  br i1 %55, label %56, label %59

56:                                               ; preds = %53
  %57 = load i32, i32* %4, align 4
  %58 = add nsw i32 243, %57
  store i32 %58, i32* %5, align 4
  br label %59

59:                                               ; preds = %56, %53
  %60 = load i32, i32* %3, align 4
  %61 = icmp eq i32 %60, 10
  br i1 %61, label %62, label %65

62:                                               ; preds = %59
  %63 = load i32, i32* %4, align 4
  %64 = add nsw i32 273, %63
  store i32 %64, i32* %5, align 4
  br label %65

65:                                               ; preds = %62, %59
  %66 = load i32, i32* %3, align 4
  %67 = icmp eq i32 %66, 11
  br i1 %67, label %68, label %71

68:                                               ; preds = %65
  %69 = load i32, i32* %4, align 4
  %70 = add nsw i32 304, %69
  store i32 %70, i32* %5, align 4
  br label %71

71:                                               ; preds = %68, %65
  %72 = load i32, i32* %3, align 4
  %73 = icmp eq i32 %72, 12
  br i1 %73, label %74, label %77

74:                                               ; preds = %71
  %75 = load i32, i32* %4, align 4
  %76 = add nsw i32 334, %75
  store i32 %76, i32* %5, align 4
  br label %77

77:                                               ; preds = %74, %71
  %78 = load i32, i32* %3, align 4
  %79 = icmp sle i32 %78, 2
  br i1 %79, label %80, label %83

80:                                               ; preds = %77
  %81 = load i32, i32* %5, align 4
  %82 = call i32 (i8*, ...) @printf(i8* getelementptr inbounds ([4 x i8], [4 x i8]* @.str.1, i64 0, i64 0), i32 %81)
  br label %112

83:                                               ; preds = %77
  %84 = load i32, i32* %2, align 4
  %85 = srem i32 %84, 4
  %86 = icmp eq i32 %85, 0
  br i1 %86, label %87, label %108

87:                                               ; preds = %83
  %88 = load i32, i32* %2, align 4
  %89 = srem i32 %88, 100
  %90 = icmp eq i32 %89, 0
  br i1 %90, label %91, label %103

91:                                               ; preds = %87
  %92 = load i32, i32* %2, align 4
  %93 = srem i32 %92, 400
  %94 = icmp eq i32 %93, 0
  br i1 %94, label %95, label %99

95:                                               ; preds = %91
  %96 = load i32, i32* %5, align 4
  %97 = add nsw i32 %96, 1
  %98 = call i32 (i8*, ...) @printf(i8* getelementptr inbounds ([4 x i8], [4 x i8]* @.str.1, i64 0, i64 0), i32 %97)
  br label %102

99:                                               ; preds = %91
  %100 = load i32, i32* %5, align 4
  %101 = call i32 (i8*, ...) @printf(i8* getelementptr inbounds ([4 x i8], [4 x i8]* @.str.1, i64 0, i64 0), i32 %100)
  br label %102

102:                                              ; preds = %99, %95
  br label %107

103:                                              ; preds = %87
  %104 = load i32, i32* %5, align 4
  %105 = add nsw i32 %104, 1
  %106 = call i32 (i8*, ...) @printf(i8* getelementptr inbounds ([4 x i8], [4 x i8]* @.str.1, i64 0, i64 0), i32 %105)
  br label %107

107:                                              ; preds = %103, %102
  br label %111

108:                                              ; preds = %83
  %109 = load i32, i32* %5, align 4
  %110 = call i32 (i8*, ...) @printf(i8* getelementptr inbounds ([4 x i8], [4 x i8]* @.str.1, i64 0, i64 0), i32 %109)
  br label %111

111:                                              ; preds = %108, %107
  br label %112

112:                                              ; preds = %111, %80
  ret i32 0
}

declare dso_local i32 @__isoc99_scanf(i8*, ...) #1

declare dso_local i32 @printf(i8*, ...) #1


!llvm.module.flags = !{!0}
!llvm.ident = !{!1}

!0 = !{i32 1, !"wchar_size", i32 4}
!1 = !{!"clang version 10.0.0-4ubuntu1 "}
